; Function Attrs: nounwind uwtable
define void @_ZThn8_N5arrow2io12ReadableFileD0Ev(ptr noundef %this) unnamed_addr #7 align 2 {
entry:
  %0 = getelementptr inbounds i8, ptr %this, i64 -8
  tail call void @_ZN5arrow2io12ReadableFileD2Ev(ptr noundef nonnull align 8 dereferenceable(48) %0, ptr noundef nonnull @_ZTTN5arrow2io12ReadableFileE) #22
  %1 = getelementptr inbounds i8, ptr %this, i64 40
  tail call void @_ZN5arrow2io13FileInterfaceD2Ev(ptr noundef nonnull align 8 dereferenceable(28) %1) #22
  tail call void @_ZdlPv(ptr noundef nonnull %0) #24
  ret void
}